target datalayout = "e-m:e-p270:32:32-p271:32:32-p272:64:64-i64:64-i128:128-f80:128-n8:16:32:64-S128"
target triple = "x86_64-pc-linux-gnu"

@_ZZN11DataPrinter8instanceEvE4inst = internal global ptr null, align 8
@_ZN11DataPrinterC1EP7QObject = unnamed_addr alias void (ptr, ptr), ptr @_ZN11DataPrinterC2EP7QObject

; Function Attrs: mustprogress null_pointer_is_valid sspstrong uwtable
define noundef ptr @_ZN11DataPrinter8instanceEv() #0 align 2 personality ptr @__gxx_personality_v0 {
  %1 = alloca ptr, align 8
  %2 = alloca i32, align 4
  %3 = load ptr, ptr @_ZZN11DataPrinter8instanceEvE4inst, align 8
  %4 = icmp eq ptr %3, null
  br i1 %4, label %5, label %12

5:                                                ; preds = %0
  %6 = call noalias noundef ptr @_Znwm(i64 noundef 24) #20
  invoke void @_ZN11DataPrinterC1EP7QObject(ptr noundef align 8 dereferenceable_or_null(20) %6, ptr noundef null)
          to label %7 unwind label %8

7:                                                ; preds = %5
  store ptr %6, ptr @_ZZN11DataPrinter8instanceEvE4inst, align 8
  br label %12

8:                                                ; preds = %5
  %9 = landingpad { ptr, i32 }
          cleanup
  %10 = extractvalue { ptr, i32 } %9, 0
  store ptr %10, ptr %1, align 8
  %11 = extractvalue { ptr, i32 } %9, 1
  store i32 %11, ptr %2, align 4
  call void @_ZdlPvm(ptr noundef %6, i64 noundef 24) #21
  br label %14

12:                                               ; preds = %7, %0
  %13 = load ptr, ptr @_ZZN11DataPrinter8instanceEvE4inst, align 8
  ret ptr %13

14:                                               ; preds = %8
  %15 = load ptr, ptr %1, align 8
  %16 = load i32, ptr %2, align 4
  %17 = insertvalue { ptr, i32 } poison, ptr %15, 0
  %18 = insertvalue { ptr, i32 } %17, i32 %16, 1
  resume { ptr, i32 } %18
}