; Function Attrs: mustprogress null_pointer_is_valid sspstrong uwtable
define noundef ptr @_ZN11DataPrinter8instanceEv() local_unnamed_addr #0 align 2 personality ptr @__gxx_personality_v0 {
  %1 = load ptr, ptr @_ZZN11DataPrinter8instanceEvE4inst, align 8
  %2 = icmp eq ptr %1, null
  br i1 %2, label %3, label %8

3:                                                ; preds = %0
  %4 = tail call noalias noundef dereferenceable_or_null(24) ptr @_Znwm(i64 noundef 24) #19
  invoke void @_ZN11DataPrinterC1EP7QObject(ptr noundef align 8 dereferenceable_or_null(20) %4, ptr noundef null)
          to label %5 unwind label %6

5:                                                ; preds = %3
  store ptr %4, ptr @_ZZN11DataPrinter8instanceEvE4inst, align 8
  br label %8

6:                                                ; preds = %3
  %7 = landingpad { ptr, i32 }
          cleanup
  tail call void @_ZdlPvm(ptr noundef %4, i64 noundef 24) #20
  resume { ptr, i32 } %7

8:                                                ; preds = %5, %0
  %9 = phi ptr [ %4, %5 ], [ %1, %0 ]
  ret ptr %9
}